target datalayout = "e-m:e-p270:32:32-p271:32:32-p272:64:64-i64:64-i128:128-f80:128-n8:16:32:64-S128"
target triple = "x86_64-pc-linux-gnu"

%struct.global_State = type { ptr, ptr, %struct.GCState, %struct.GCstr, i8, i8, i8, i8, %struct.StrInternState, i32, %struct.GCRef, %struct.SBuf, %union.TValue, %union.TValue, %struct.Node, %union.TValue, %struct.GCupval, i32, i32, ptr, ptr, ptr, i32, i32, %struct.GCRef, %struct.MRef, %struct.MRef, %struct.PRNGState, [39 x %struct.GCRef] }
%struct.GCState = type { i64, i64, i8, i8, i8, i8, i32, %struct.GCRef, %struct.MRef, %struct.GCRef, %struct.GCRef, %struct.GCRef, %struct.GCRef, i64, i64, i32, i32, %struct.MRef }
%struct.GCstr = type { %struct.GCRef, i8, i8, i8, i8, i32, i32, i32 }
%struct.StrInternState = type { ptr, i32, i32, i32, i8, i8, i8, i8, i64 }
%struct.SBuf = type { ptr, ptr, ptr, %struct.MRef }
%struct.Node = type { %union.TValue, %union.TValue, %struct.MRef }
%union.TValue = type { i64 }
%struct.GCupval = type { %struct.GCRef, i8, i8, i8, i8, %union.anon, %struct.MRef, i32 }
%union.anon = type { %struct.anon.1 }
%struct.anon.1 = type { %struct.GCRef, %struct.GCRef }
%struct.GCRef = type { i64 }
%struct.MRef = type { i64 }
%struct.PRNGState = type { [4 x i64] }
%struct.lua_State = type { %struct.GCRef, i8, i8, i8, i8, %struct.MRef, %struct.GCRef, ptr, ptr, %struct.MRef, %struct.MRef, %struct.GCRef, %struct.GCRef, ptr, i32 }
%struct.GChead = type { %struct.GCRef, i8, i8, i8, i8, %struct.GCRef, %struct.GCRef, %struct.GCRef }
%struct.GCudata = type { %struct.GCRef, i8, i8, i8, i8, %struct.GCRef, i32, %struct.GCRef, i32 }
%struct.GCtab = type { %struct.GCRef, i8, i8, i8, i8, %struct.MRef, %struct.GCRef, %struct.GCRef, %struct.MRef, i32, i32, %struct.MRef }

@.str = private unnamed_addr constant [24 x i8] c"store to dead GC object\00", align 1
@.str.1 = private unnamed_addr constant [23 x i8] c"copy of dead GC object\00", align 1

; Function Attrs: alwaysinline nounwind uwtable
define internal void @setgcVraw(ptr noundef %0, ptr noundef %1, i32 noundef %2) #4 {
  %4 = alloca ptr, align 8
  %5 = alloca ptr, align 8
  %6 = alloca i32, align 4
  store ptr %0, ptr %4, align 8, !tbaa !45
  store ptr %1, ptr %5, align 8, !tbaa !28
  store i32 %2, ptr %6, align 4, !tbaa !9
  %7 = load ptr, ptr %5, align 8, !tbaa !28
  %8 = ptrtoint ptr %7 to i64
  %9 = load i32, ptr %6, align 4, !tbaa !9
  %10 = zext i32 %9 to i64
  %11 = shl i64 %10, 47
  %12 = or i64 %8, %11
  %13 = load ptr, ptr %4, align 8, !tbaa !45
  %14 = getelementptr inbounds nuw %struct.GCRef, ptr %13, i32 0, i32 0
  store i64 %12, ptr %14, align 8, !tbaa !30
  ret void
}

; Function Attrs: alwaysinline nounwind uwtable
define internal void @checklivetv(ptr noundef %0, ptr noundef %1, ptr noundef %2) #4 {
  %4 = alloca ptr, align 8
  %5 = alloca ptr, align 8
  %6 = alloca ptr, align 8
  store ptr %0, ptr %4, align 8, !tbaa !37
  store ptr %1, ptr %5, align 8, !tbaa !45
  store ptr %2, ptr %6, align 8, !tbaa !118
  ret void
}

; Function Attrs: alwaysinline nounwind uwtable
define internal void @setgcV(ptr noundef %0, ptr noundef %1, ptr noundef %2, i32 noundef %3) #4 {
  %5 = alloca ptr, align 8
  %6 = alloca ptr, align 8
  %7 = alloca ptr, align 8
  %8 = alloca i32, align 4
  store ptr %0, ptr %5, align 8, !tbaa !37
  store ptr %1, ptr %6, align 8, !tbaa !45
  store ptr %2, ptr %7, align 8, !tbaa !28
  store i32 %3, ptr %8, align 4, !tbaa !9
  %9 = load ptr, ptr %6, align 8, !tbaa !45
  %10 = load ptr, ptr %7, align 8, !tbaa !28
  %11 = load i32, ptr %8, align 4, !tbaa !9
  call void @setgcVraw(ptr noundef %9, ptr noundef %10, i32 noundef %11)
  %12 = load ptr, ptr %5, align 8, !tbaa !37
  %13 = load ptr, ptr %6, align 8, !tbaa !45
  call void @checklivetv(ptr noundef %12, ptr noundef %13, ptr noundef @.str)
  ret void
}

; Function Attrs: alwaysinline nounwind uwtable
define internal void @copyTV(ptr noundef %0, ptr noundef %1, ptr noundef %2) #4 {
  %4 = alloca ptr, align 8
  %5 = alloca ptr, align 8
  %6 = alloca ptr, align 8
  store ptr %0, ptr %4, align 8, !tbaa !37
  store ptr %1, ptr %5, align 8, !tbaa !45
  store ptr %2, ptr %6, align 8, !tbaa !45
  %7 = load ptr, ptr %5, align 8, !tbaa !45
  %8 = load ptr, ptr %6, align 8, !tbaa !45
  call void @llvm.memcpy.p0.p0.i64(ptr align 8 %7, ptr align 8 %8, i64 8, i1 false), !tbaa.struct !54
  %9 = load ptr, ptr %4, align 8, !tbaa !37
  %10 = load ptr, ptr %5, align 8, !tbaa !45
  call void @checklivetv(ptr noundef %9, ptr noundef %10, ptr noundef @.str.1)
  ret void
}

; Function Attrs: alwaysinline nounwind uwtable
define internal void @setcdataV(ptr noundef %0, ptr noundef %1, ptr noundef %2) #4 {
  %4 = alloca ptr, align 8
  %5 = alloca ptr, align 8
  %6 = alloca ptr, align 8
  store ptr %0, ptr %4, align 8, !tbaa !37
  store ptr %1, ptr %5, align 8, !tbaa !45
  store ptr %2, ptr %6, align 8, !tbaa !116
  %7 = load ptr, ptr %4, align 8, !tbaa !37
  %8 = load ptr, ptr %5, align 8, !tbaa !45
  %9 = load ptr, ptr %6, align 8, !tbaa !116
  call void @setgcV(ptr noundef %7, ptr noundef %8, ptr noundef %9, i32 noundef -11)
  ret void
}

; Function Attrs: nounwind uwtable
define internal void @gc_finalize(ptr noundef %0) #0 {
  %2 = alloca ptr, align 8
  %3 = alloca ptr, align 8
  %4 = alloca ptr, align 8
  %5 = alloca ptr, align 8
  %6 = alloca %union.TValue, align 8
  %7 = alloca ptr, align 8
  %8 = alloca i32, align 4
  store ptr %0, ptr %2, align 8, !tbaa !37
  call void @llvm.lifetime.start.p0(i64 8, ptr %3) #7
  %9 = load ptr, ptr %2, align 8, !tbaa !37
  %10 = getelementptr inbounds nuw %struct.lua_State, ptr %9, i32 0, i32 5
  %11 = getelementptr inbounds nuw %struct.MRef, ptr %10, i32 0, i32 0
  %12 = load i64, ptr %11, align 8, !tbaa !39
  %13 = inttoptr i64 %12 to ptr
  store ptr %13, ptr %3, align 8, !tbaa !4
  call void @llvm.lifetime.start.p0(i64 8, ptr %4) #7
  %14 = load ptr, ptr %3, align 8, !tbaa !4
  %15 = getelementptr inbounds nuw %struct.global_State, ptr %14, i32 0, i32 2
  %16 = getelementptr inbounds nuw %struct.GCState, ptr %15, i32 0, i32 12
  %17 = getelementptr inbounds nuw %struct.GCRef, ptr %16, i32 0, i32 0
  %18 = load i64, ptr %17, align 8, !tbaa !34
  %19 = inttoptr i64 %18 to ptr
  %20 = getelementptr inbounds nuw %struct.GChead, ptr %19, i32 0, i32 0
  %21 = getelementptr inbounds nuw %struct.GCRef, ptr %20, i32 0, i32 0
  %22 = load i64, ptr %21, align 8, !tbaa !30
  %23 = inttoptr i64 %22 to ptr
  store ptr %23, ptr %4, align 8, !tbaa !28
  call void @llvm.lifetime.start.p0(i64 8, ptr %5) #7
  %24 = load ptr, ptr %4, align 8, !tbaa !28
  %25 = load ptr, ptr %3, align 8, !tbaa !4
  %26 = getelementptr inbounds nuw %struct.global_State, ptr %25, i32 0, i32 2
  %27 = getelementptr inbounds nuw %struct.GCState, ptr %26, i32 0, i32 12
  %28 = getelementptr inbounds nuw %struct.GCRef, ptr %27, i32 0, i32 0
  %29 = load i64, ptr %28, align 8, !tbaa !34
  %30 = inttoptr i64 %29 to ptr
  %31 = icmp eq ptr %24, %30
  br i1 %31, label %32, label %37

32:                                               ; preds = %1
  %33 = load ptr, ptr %3, align 8, !tbaa !4
  %34 = getelementptr inbounds nuw %struct.global_State, ptr %33, i32 0, i32 2
  %35 = getelementptr inbounds nuw %struct.GCState, ptr %34, i32 0, i32 12
  %36 = getelementptr inbounds nuw %struct.GCRef, ptr %35, i32 0, i32 0
  store i64 0, ptr %36, align 8, !tbaa !34
  br label %50

37:                                               ; preds = %1
  %38 = load ptr, ptr %4, align 8, !tbaa !28
  %39 = getelementptr inbounds nuw %struct.GChead, ptr %38, i32 0, i32 0
  %40 = getelementptr inbounds nuw %struct.GCRef, ptr %39, i32 0, i32 0
  %41 = load i64, ptr %40, align 8, !tbaa !30
  %42 = load ptr, ptr %3, align 8, !tbaa !4
  %43 = getelementptr inbounds nuw %struct.global_State, ptr %42, i32 0, i32 2
  %44 = getelementptr inbounds nuw %struct.GCState, ptr %43, i32 0, i32 12
  %45 = getelementptr inbounds nuw %struct.GCRef, ptr %44, i32 0, i32 0
  %46 = load i64, ptr %45, align 8, !tbaa !34
  %47 = inttoptr i64 %46 to ptr
  %48 = getelementptr inbounds nuw %struct.GChead, ptr %47, i32 0, i32 0
  %49 = getelementptr inbounds nuw %struct.GCRef, ptr %48, i32 0, i32 0
  store i64 %41, ptr %49, align 8, !tbaa !30
  br label %50

50:                                               ; preds = %37, %32
  %51 = load ptr, ptr %4, align 8, !tbaa !28
  %52 = getelementptr inbounds nuw %struct.GChead, ptr %51, i32 0, i32 2
  %53 = load i8, ptr %52, align 1, !tbaa !30
  %54 = zext i8 %53 to i32
  %55 = icmp eq i32 %54, 10
  br i1 %55, label %56, label %113

56:                                               ; preds = %50
  call void @llvm.lifetime.start.p0(i64 8, ptr %6) #7
  call void @llvm.lifetime.start.p0(i64 8, ptr %7) #7
  %57 = load ptr, ptr %3, align 8, !tbaa !4
  %58 = getelementptr inbounds nuw %struct.global_State, ptr %57, i32 0, i32 2
  %59 = getelementptr inbounds nuw %struct.GCState, ptr %58, i32 0, i32 7
  %60 = getelementptr inbounds nuw %struct.GCRef, ptr %59, i32 0, i32 0
  %61 = load i64, ptr %60, align 8, !tbaa !43
  %62 = load ptr, ptr %4, align 8, !tbaa !28
  %63 = getelementptr inbounds nuw %struct.GChead, ptr %62, i32 0, i32 0
  %64 = getelementptr inbounds nuw %struct.GCRef, ptr %63, i32 0, i32 0
  store i64 %61, ptr %64, align 8, !tbaa !30
  %65 = load ptr, ptr %4, align 8, !tbaa !28
  %66 = ptrtoint ptr %65 to i64
  %67 = load ptr, ptr %3, align 8, !tbaa !4
  %68 = getelementptr inbounds nuw %struct.global_State, ptr %67, i32 0, i32 2
  %69 = getelementptr inbounds nuw %struct.GCState, ptr %68, i32 0, i32 7
  %70 = getelementptr inbounds nuw %struct.GCRef, ptr %69, i32 0, i32 0
  store i64 %66, ptr %70, align 8, !tbaa !43
  %71 = load ptr, ptr %4, align 8, !tbaa !28
  %72 = getelementptr inbounds nuw %struct.GChead, ptr %71, i32 0, i32 1
  %73 = load i8, ptr %72, align 8, !tbaa !30
  %74 = zext i8 %73 to i32
  %75 = and i32 %74, 248
  %76 = load ptr, ptr %3, align 8, !tbaa !4
  %77 = getelementptr inbounds nuw %struct.global_State, ptr %76, i32 0, i32 2
  %78 = getelementptr inbounds nuw %struct.GCState, ptr %77, i32 0, i32 2
  %79 = load i8, ptr %78, align 8, !tbaa !44
  %80 = zext i8 %79 to i32
  %81 = and i32 %80, 3
  %82 = or i32 %75, %81
  %83 = trunc i32 %82 to i8
  %84 = load ptr, ptr %4, align 8, !tbaa !28
  %85 = getelementptr inbounds nuw %struct.GChead, ptr %84, i32 0, i32 1
  store i8 %83, ptr %85, align 8, !tbaa !30
  %86 = load ptr, ptr %4, align 8, !tbaa !28
  %87 = getelementptr inbounds nuw %struct.GChead, ptr %86, i32 0, i32 1
  %88 = load i8, ptr %87, align 8, !tbaa !30
  %89 = zext i8 %88 to i32
  %90 = and i32 %89, 239
  %91 = trunc i32 %90 to i8
  store i8 %91, ptr %87, align 8, !tbaa !30
  %92 = load ptr, ptr %2, align 8, !tbaa !37
  %93 = load ptr, ptr %4, align 8, !tbaa !28
  call void @setcdataV(ptr noundef %92, ptr noundef %6, ptr noundef %93)
  %94 = load ptr, ptr %2, align 8, !tbaa !37
  %95 = load ptr, ptr %3, align 8, !tbaa !4
  %96 = getelementptr inbounds nuw %struct.global_State, ptr %95, i32 0, i32 28
  %97 = getelementptr inbounds [39 x %struct.GCRef], ptr %96, i64 0, i64 38
  %98 = getelementptr inbounds nuw %struct.GCRef, ptr %97, i32 0, i32 0
  %99 = load i64, ptr %98, align 8, !tbaa !27
  %100 = inttoptr i64 %99 to ptr
  %101 = call ptr @lj_tab_set(ptr noundef %94, ptr noundef %100, ptr noundef %6)
  store ptr %101, ptr %7, align 8, !tbaa !45
  %102 = load ptr, ptr %7, align 8, !tbaa !45
  %103 = load i64, ptr %102, align 8, !tbaa !30
  %104 = icmp eq i64 %103, -1
  br i1 %104, label %112, label %105

105:                                              ; preds = %56
  %106 = load ptr, ptr %2, align 8, !tbaa !37
  %107 = load ptr, ptr %7, align 8, !tbaa !45
  call void @copyTV(ptr noundef %106, ptr noundef %6, ptr noundef %107)
  %108 = load ptr, ptr %7, align 8, !tbaa !45
  store i64 -1, ptr %108, align 8, !tbaa !30
  %109 = load ptr, ptr %3, align 8, !tbaa !4
  %110 = load ptr, ptr %2, align 8, !tbaa !37
  %111 = load ptr, ptr %4, align 8, !tbaa !28
  call void @gc_call_finalizer(ptr noundef %109, ptr noundef %110, ptr noundef %6, ptr noundef %111)
  br label %112

112:                                              ; preds = %105, %56
  store i32 1, ptr %8, align 4
  call void @llvm.lifetime.end.p0(i64 8, ptr %7) #7
  call void @llvm.lifetime.end.p0(i64 8, ptr %6) #7
  br label %193

113:                                              ; preds = %50
  %114 = load ptr, ptr %3, align 8, !tbaa !4
  %115 = getelementptr inbounds nuw %struct.global_State, ptr %114, i32 0, i32 10
  %116 = getelementptr inbounds nuw %struct.GCRef, ptr %115, i32 0, i32 0
  %117 = load i64, ptr %116, align 8, !tbaa !13
  %118 = inttoptr i64 %117 to ptr
  %119 = getelementptr inbounds nuw %struct.lua_State, ptr %118, i32 0, i32 0
  %120 = getelementptr inbounds nuw %struct.GCRef, ptr %119, i32 0, i32 0
  %121 = load i64, ptr %120, align 8, !tbaa !30
  %122 = load ptr, ptr %4, align 8, !tbaa !28
  %123 = getelementptr inbounds nuw %struct.GChead, ptr %122, i32 0, i32 0
  %124 = getelementptr inbounds nuw %struct.GCRef, ptr %123, i32 0, i32 0
  store i64 %121, ptr %124, align 8, !tbaa !30
  %125 = load ptr, ptr %4, align 8, !tbaa !28
  %126 = ptrtoint ptr %125 to i64
  %127 = load ptr, ptr %3, align 8, !tbaa !4
  %128 = getelementptr inbounds nuw %struct.global_State, ptr %127, i32 0, i32 10
  %129 = getelementptr inbounds nuw %struct.GCRef, ptr %128, i32 0, i32 0
  %130 = load i64, ptr %129, align 8, !tbaa !13
  %131 = inttoptr i64 %130 to ptr
  %132 = getelementptr inbounds nuw %struct.lua_State, ptr %131, i32 0, i32 0
  %133 = getelementptr inbounds nuw %struct.GCRef, ptr %132, i32 0, i32 0
  store i64 %126, ptr %133, align 8, !tbaa !30
  %134 = load ptr, ptr %4, align 8, !tbaa !28
  %135 = getelementptr inbounds nuw %struct.GChead, ptr %134, i32 0, i32 1
  %136 = load i8, ptr %135, align 8, !tbaa !30
  %137 = zext i8 %136 to i32
  %138 = and i32 %137, 248
  %139 = load ptr, ptr %3, align 8, !tbaa !4
  %140 = getelementptr inbounds nuw %struct.global_State, ptr %139, i32 0, i32 2
  %141 = getelementptr inbounds nuw %struct.GCState, ptr %140, i32 0, i32 2
  %142 = load i8, ptr %141, align 8, !tbaa !44
  %143 = zext i8 %142 to i32
  %144 = and i32 %143, 3
  %145 = or i32 %138, %144
  %146 = trunc i32 %145 to i8
  %147 = load ptr, ptr %4, align 8, !tbaa !28
  %148 = getelementptr inbounds nuw %struct.GChead, ptr %147, i32 0, i32 1
  store i8 %146, ptr %148, align 8, !tbaa !30
  %149 = load ptr, ptr %4, align 8, !tbaa !28
  %150 = getelementptr inbounds nuw %struct.GCudata, ptr %149, i32 0, i32 7
  %151 = getelementptr inbounds nuw %struct.GCRef, ptr %150, i32 0, i32 0
  %152 = load i64, ptr %151, align 8, !tbaa !30
  %153 = inttoptr i64 %152 to ptr
  %154 = icmp eq ptr %153, null
  br i1 %154, label %155, label %156

155:                                              ; preds = %113
  br label %183

156:                                              ; preds = %113
  %157 = load ptr, ptr %4, align 8, !tbaa !28
  %158 = getelementptr inbounds nuw %struct.GCudata, ptr %157, i32 0, i32 7
  %159 = getelementptr inbounds nuw %struct.GCRef, ptr %158, i32 0, i32 0
  %160 = load i64, ptr %159, align 8, !tbaa !30
  %161 = inttoptr i64 %160 to ptr
  %162 = getelementptr inbounds nuw %struct.GCtab, ptr %161, i32 0, i32 3
  %163 = load i8, ptr %162, align 2, !tbaa !31
  %164 = zext i8 %163 to i32
  %165 = and i32 %164, 4
  %166 = icmp ne i32 %165, 0
  br i1 %166, label %167, label %168

167:                                              ; preds = %156
  br label %181

168:                                              ; preds = %156
  %169 = load ptr, ptr %4, align 8, !tbaa !28
  %170 = getelementptr inbounds nuw %struct.GCudata, ptr %169, i32 0, i32 7
  %171 = getelementptr inbounds nuw %struct.GCRef, ptr %170, i32 0, i32 0
  %172 = load i64, ptr %171, align 8, !tbaa !30
  %173 = inttoptr i64 %172 to ptr
  %174 = load ptr, ptr %3, align 8, !tbaa !4
  %175 = getelementptr inbounds nuw %struct.global_State, ptr %174, i32 0, i32 28
  %176 = getelementptr inbounds [39 x %struct.GCRef], ptr %175, i64 0, i64 2
  %177 = getelementptr inbounds nuw %struct.GCRef, ptr %176, i32 0, i32 0
  %178 = load i64, ptr %177, align 8, !tbaa !27
  %179 = inttoptr i64 %178 to ptr
  %180 = call ptr @lj_meta_cache(ptr noundef %173, i32 noundef 2, ptr noundef %179)
  br label %181

181:                                              ; preds = %168, %167
  %182 = phi ptr [ null, %167 ], [ %180, %168 ]
  br label %183

183:                                              ; preds = %181, %155
  %184 = phi ptr [ null, %155 ], [ %182, %181 ]
  store ptr %184, ptr %5, align 8, !tbaa !45
  %185 = load ptr, ptr %5, align 8, !tbaa !45
  %186 = icmp ne ptr %185, null
  br i1 %186, label %187, label %192

187:                                              ; preds = %183
  %188 = load ptr, ptr %3, align 8, !tbaa !4
  %189 = load ptr, ptr %2, align 8, !tbaa !37
  %190 = load ptr, ptr %5, align 8, !tbaa !45
  %191 = load ptr, ptr %4, align 8, !tbaa !28
  call void @gc_call_finalizer(ptr noundef %188, ptr noundef %189, ptr noundef %190, ptr noundef %191)
  br label %192

192:                                              ; preds = %187, %183
  store i32 0, ptr %8, align 4
  br label %193

193:                                              ; preds = %192, %112
  call void @llvm.lifetime.end.p0(i64 8, ptr %5) #7
  call void @llvm.lifetime.end.p0(i64 8, ptr %4) #7
  call void @llvm.lifetime.end.p0(i64 8, ptr %3) #7
  %194 = load i32, ptr %8, align 4
  switch i32 %194, label %196 [
    i32 0, label %195
    i32 1, label %195
  ]

195:                                              ; preds = %193, %193
  ret void

196:                                              ; preds = %193
  unreachable
}