; Function Attrs: nounwind uwtable
define internal fastcc void @gc_finalize(ptr noundef %0) unnamed_addr #0 {
  %2 = alloca %union.TValue, align 8
  %3 = getelementptr inbounds nuw i8, ptr %0, i64 16
  %4 = load i64, ptr %3, align 8, !tbaa !30
  %5 = inttoptr i64 %4 to ptr
  %6 = getelementptr inbounds nuw i8, ptr %5, i64 80
  %7 = load i64, ptr %6, align 8, !tbaa !27
  %8 = inttoptr i64 %7 to ptr
  %9 = load i64, ptr %8, align 8, !tbaa !23
  %10 = inttoptr i64 %9 to ptr
  %11 = icmp eq i64 %9, %7
  br i1 %11, label %12, label %13

12:                                               ; preds = %1
  store i64 0, ptr %6, align 8, !tbaa !27
  br label %15

13:                                               ; preds = %1
  %14 = load i64, ptr %10, align 8, !tbaa !23
  store i64 %14, ptr %8, align 8, !tbaa !23
  br label %15

15:                                               ; preds = %13, %12
  %16 = getelementptr inbounds nuw i8, ptr %10, i64 9
  %17 = load i8, ptr %16, align 1, !tbaa !23
  %18 = icmp eq i8 %17, 10
  br i1 %18, label %19, label %38

19:                                               ; preds = %15
  call void @llvm.lifetime.start.p0(i64 8, ptr nonnull %2) #8
  %20 = getelementptr inbounds nuw i8, ptr %5, i64 40
  %21 = load i64, ptr %20, align 8, !tbaa !34
  store i64 %21, ptr %10, align 8, !tbaa !23
  store i64 %9, ptr %20, align 8, !tbaa !34
  %22 = getelementptr inbounds nuw i8, ptr %10, i64 8
  %23 = load i8, ptr %22, align 8, !tbaa !23
  %24 = and i8 %23, -24
  %25 = getelementptr inbounds nuw i8, ptr %5, i64 32
  %26 = load i8, ptr %25, align 8, !tbaa !35
  %27 = and i8 %26, 3
  %28 = or disjoint i8 %27, %24
  store i8 %28, ptr %22, align 8, !tbaa !23
  %29 = or i64 %9, -1548112371908608
  store i64 %29, ptr %2, align 8, !tbaa !23
  %30 = getelementptr inbounds nuw i8, ptr %5, i64 728
  %31 = load i64, ptr %30, align 8, !tbaa !22
  %32 = inttoptr i64 %31 to ptr
  %33 = call ptr @lj_tab_set(ptr noundef nonnull %0, ptr noundef %32, ptr noundef nonnull %2) #8
  %34 = load i64, ptr %33, align 8, !tbaa !23
  %35 = icmp eq i64 %34, -1
  br i1 %35, label %37, label %36

36:                                               ; preds = %19
  store i64 %34, ptr %2, align 8, !tbaa !23
  store i64 -1, ptr %33, align 8, !tbaa !23
  call fastcc void @gc_call_finalizer(ptr noundef nonnull %5, ptr noundef nonnull %0, ptr noundef %2, ptr noundef nonnull %10)
  br label %37

37:                                               ; preds = %36, %19
  call void @llvm.lifetime.end.p0(i64 8, ptr nonnull %2) #8
  br label %.thread

38:                                               ; preds = %15
  %39 = getelementptr inbounds nuw i8, ptr %5, i64 192
  %40 = load i64, ptr %39, align 8, !tbaa !4
  %41 = inttoptr i64 %40 to ptr
  %42 = load i64, ptr %41, align 8, !tbaa !23
  store i64 %42, ptr %10, align 8, !tbaa !23
  %43 = load i64, ptr %39, align 8, !tbaa !4
  %44 = inttoptr i64 %43 to ptr
  store i64 %9, ptr %44, align 8, !tbaa !23
  %45 = getelementptr inbounds nuw i8, ptr %10, i64 8
  %46 = load i8, ptr %45, align 8, !tbaa !23
  %47 = and i8 %46, -8
  %48 = getelementptr inbounds nuw i8, ptr %5, i64 32
  %49 = load i8, ptr %48, align 8, !tbaa !35
  %50 = and i8 %49, 3
  %51 = or disjoint i8 %50, %47
  store i8 %51, ptr %45, align 8, !tbaa !23
  %52 = getelementptr inbounds nuw i8, ptr %10, i64 32
  %53 = load i64, ptr %52, align 8, !tbaa !23
  %54 = inttoptr i64 %53 to ptr
  %55 = icmp eq i64 %53, 0
  br i1 %55, label %.thread, label %56

56:                                               ; preds = %38
  %57 = getelementptr inbounds nuw i8, ptr %54, i64 10
  %58 = load i8, ptr %57, align 2, !tbaa !24
  %59 = and i8 %58, 4
  %.not = icmp eq i8 %59, 0
  br i1 %.not, label %60, label %.thread

60:                                               ; preds = %56
  %61 = getelementptr inbounds nuw i8, ptr %5, i64 440
  %62 = load i64, ptr %61, align 8, !tbaa !22
  %63 = inttoptr i64 %62 to ptr
  %64 = tail call ptr @lj_meta_cache(ptr noundef nonnull %54, i32 noundef 2, ptr noundef %63) #8
  %.not46 = icmp eq ptr %64, null
  br i1 %.not46, label %.thread, label %65

65:                                               ; preds = %60
  tail call fastcc void @gc_call_finalizer(ptr noundef nonnull %5, ptr noundef nonnull %0, ptr noundef %64, ptr noundef nonnull %10)
  br label %.thread

.thread:                                          ; preds = %56, %38, %60, %65, %37
  ret void
}